; Function Attrs: mustprogress uwtable
define void @_ZNK6icu_756number4impl15CurrencySymbols21getIntlCurrencySymbolER10UErrorCode(ptr noalias sret(%"class.icu_75::UnicodeString") align 8 %agg.result, ptr noundef nonnull align 8 dereferenceable(232) %this, ptr nocapture noundef nonnull readnone align 4 dereferenceable(4) %0) local_unnamed_addr #1 align 2 {
entry:
  %fUnion.i = getelementptr inbounds i8, ptr %this, i64 176
  %1 = load i16, ptr %fUnion.i, align 8
  %conv2.i1 = and i16 %1, 1
  %tobool.not = icmp eq i16 %conv2.i1, 0
  br i1 %tobool.not, label %if.then, label %if.end

if.then:                                          ; preds = %entry
  %fIntlCurrencySymbol = getelementptr inbounds i8, ptr %this, i64 168
  tail call void @_ZN6icu_7513UnicodeStringC1ERKS0_(ptr noundef nonnull align 8 dereferenceable(64) %agg.result, ptr noundef nonnull align 8 dereferenceable(64) %fIntlCurrencySymbol)
  br label %return

if.end:                                           ; preds = %entry
  %isoCode.i = getelementptr inbounds i8, ptr %this, i64 28
  tail call void @_ZN6icu_7513UnicodeStringC1EPKDsi(ptr noundef nonnull align 8 dereferenceable(64) %agg.result, ptr noundef nonnull %isoCode.i, i32 noundef 3)
  br label %return

return:                                           ; preds = %if.end, %if.then
  ret void
}